target datalayout = "e-m:e-p270:32:32-p271:32:32-p272:64:64-i64:64-i128:128-f80:128-n8:16:32:64-S128"
target triple = "x86_64-pc-linux-gnu"

%"class.cv::obsensor::IFrameProcessor" = type { ptr }
%"class.cv::obsensor::DepthFrameUnpacker" = type { %"class.cv::obsensor::IFrameProcessor", i32, ptr }

; Function Attrs: mustprogress nounwind uwtable
define linkonce_odr hidden void @_ZN2cv8obsensor15IFrameProcessorD2Ev(ptr noundef nonnull align 8 dereferenceable(8) %0) unnamed_addr #6 comdat align 2 {
  %2 = alloca ptr, align 8
  store ptr %0, ptr %2, align 8, !tbaa !119
  ret void
}

; Function Attrs: mustprogress nounwind uwtable
define hidden void @_ZN2cv8obsensor18DepthFrameUnpackerD2Ev(ptr noundef nonnull align 8 dereferenceable(24) %0) unnamed_addr #6 align 2 {
  %2 = alloca ptr, align 8
  store ptr %0, ptr %2, align 8, !tbaa !128
  %3 = load ptr, ptr %2, align 8
  store ptr getelementptr inbounds inrange(-16, 24) ({ [5 x ptr] }, ptr @_ZTVN2cv8obsensor18DepthFrameUnpackerE, i32 0, i32 0, i32 2), ptr %3, align 8, !tbaa !95
  %4 = getelementptr inbounds nuw %"class.cv::obsensor::DepthFrameUnpacker", ptr %3, i32 0, i32 2
  %5 = load ptr, ptr %4, align 8, !tbaa !132
  %6 = icmp eq ptr %5, null
  br i1 %6, label %8, label %7

7:                                                ; preds = %1
  call void @_ZdaPv(ptr noundef %5) #24
  br label %8

8:                                                ; preds = %7, %1
  call void @_ZN2cv8obsensor15IFrameProcessorD2Ev(ptr noundef nonnull align 8 dereferenceable(8) %3) #3
  ret void
}